; Function Attrs: mustprogress uwtable
define hidden void @_ZN3ue219AsciiComponentClassC2ERKNS_9ParseModeE(ptr noundef nonnull align 8 dereferenceable(72) %this, ptr noundef nonnull align 1 dereferenceable(6) %mode_in) unnamed_addr #0 align 2 personality ptr @__gxx_personality_v0 {
invoke.cont:
  tail call void @_ZN3ue214ComponentClassC2ERKNS_9ParseModeE(ptr noundef nonnull align 8 dereferenceable(29) %this, ptr noundef nonnull align 1 dereferenceable(6) %mode_in)
  store ptr getelementptr inbounds ({ [22 x ptr] }, ptr @_ZTVN3ue219AsciiComponentClassE, i64 0, i32 0, i64 2), ptr %this, align 8
  %position = getelementptr inbounds i8, ptr %this, i64 32
  %0 = load i32, ptr @_ZN3ue218GlushkovBuildState17POS_UNINITIALIZEDE, align 4
  store i32 %0, ptr %position, align 8
  %cr = getelementptr inbounds i8, ptr %this, i64 40
  tail call void @llvm.memset.p0.i64(ptr noundef nonnull align 8 dereferenceable(32) %cr, i8 0, i64 32, i1 false)
  ret void
}